; Function Attrs: nounwind uwtable
define ptr @l_Array_foldlMUnsafe_fold___at_Lean_Elab_InfoTree_foldInfoM_go___spec__8___rarg___lambda__1___boxed(ptr noundef %0, ptr noundef %1, ptr noundef %2, ptr noundef %3, ptr noundef %4, ptr noundef %5, ptr noundef %6) #0 {
  %8 = getelementptr i8, ptr %0, i64 8
  %.val14 = load i64, ptr %8, align 8, !tbaa !13
  %9 = ptrtoint ptr %0 to i64
  %10 = and i64 %9, 1
  %.not = icmp eq i64 %10, 0
  br i1 %.not, label %11, label %lean_dec.exit11

11:                                               ; preds = %7
  %12 = load i32, ptr %0, align 4, !tbaa !4
  %13 = icmp sgt i32 %12, 1
  br i1 %13, label %14, label %16, !prof !15

14:                                               ; preds = %11
  %15 = add nsw i32 %12, -1
  store i32 %15, ptr %0, align 4, !tbaa !4
  br label %lean_dec.exit11

16:                                               ; preds = %11
  %.not.i = icmp eq i32 %12, 0
  br i1 %.not.i, label %lean_dec.exit11, label %17

17:                                               ; preds = %16
  tail call void @lean_dec_ref_cold(ptr noundef nonnull %0) #7
  br label %lean_dec.exit11

lean_dec.exit11:                                  ; preds = %17, %16, %14, %7
  %18 = getelementptr i8, ptr %5, i64 8
  %.val = load i64, ptr %18, align 8, !tbaa !13
  %19 = ptrtoint ptr %5 to i64
  %20 = and i64 %19, 1
  %.not15 = icmp eq i64 %20, 0
  br i1 %.not15, label %21, label %lean_dec.exit

21:                                               ; preds = %lean_dec.exit11
  %22 = load i32, ptr %5, align 4, !tbaa !4
  %23 = icmp sgt i32 %22, 1
  br i1 %23, label %24, label %26, !prof !15

24:                                               ; preds = %21
  %25 = add nsw i32 %22, -1
  store i32 %25, ptr %5, align 4, !tbaa !4
  br label %lean_dec.exit

26:                                               ; preds = %21
  %.not.i12 = icmp eq i32 %22, 0
  br i1 %.not.i12, label %lean_dec.exit, label %27

27:                                               ; preds = %26
  tail call void @lean_dec_ref_cold(ptr noundef nonnull %5) #7
  br label %lean_dec.exit

lean_dec.exit:                                    ; preds = %27, %26, %24, %lean_dec.exit11
  %28 = add i64 %.val14, 1
  %29 = tail call ptr @l_Array_foldlMUnsafe_fold___at_Lean_Elab_InfoTree_foldInfoM_go___spec__8___rarg(ptr noundef %1, ptr noundef %2, ptr noundef %3, ptr noundef %4, i64 noundef %28, i64 noundef %.val, ptr noundef %6)
  ret ptr %29
}